target datalayout = "e-m:e-p270:32:32-p271:32:32-p272:64:64-i64:64-i128:128-f80:128-n8:16:32:64-S128"
target triple = "x86_64-unknown-linux-gnu"

; Function Attrs: mustprogress nounwind uwtable
define internal void @_ZN4nodeL16force_ascii_slowEPKcPcm(ptr noundef %src, ptr noundef %dst, i64 noundef %len) #4 {
entry:
  %src.addr = alloca ptr, align 8
  %dst.addr = alloca ptr, align 8
  %len.addr = alloca i64, align 8
  %i = alloca i64, align 8
  store ptr %src, ptr %src.addr, align 8
  store ptr %dst, ptr %dst.addr, align 8
  store i64 %len, ptr %len.addr, align 8
  store i64 0, ptr %i, align 8
  br label %for.cond

for.cond:                                         ; preds = %for.inc, %entry
  %0 = load i64, ptr %i, align 8
  %1 = load i64, ptr %len.addr, align 8
  %cmp = icmp ult i64 %0, %1
  br i1 %cmp, label %for.body, label %for.end

for.body:                                         ; preds = %for.cond
  %2 = load ptr, ptr %src.addr, align 8
  %3 = load i64, ptr %i, align 8
  %arrayidx = getelementptr inbounds i8, ptr %2, i64 %3
  %4 = load i8, ptr %arrayidx, align 1
  %conv = sext i8 %4 to i32
  %and = and i32 %conv, 127
  %conv1 = trunc i32 %and to i8
  %5 = load ptr, ptr %dst.addr, align 8
  %6 = load i64, ptr %i, align 8
  %arrayidx2 = getelementptr inbounds i8, ptr %5, i64 %6
  store i8 %conv1, ptr %arrayidx2, align 1
  br label %for.inc

for.inc:                                          ; preds = %for.body
  %7 = load i64, ptr %i, align 8
  %inc = add i64 %7, 1
  store i64 %inc, ptr %i, align 8
  br label %for.cond, !llvm.loop !13

for.end:                                          ; preds = %for.cond
  ret void
}

; Function Attrs: mustprogress nounwind uwtable
define internal void @_ZN4nodeL11force_asciiEPKcPcm(ptr noundef %src, ptr noundef %dst, i64 noundef %len) #4 {
entry:
  %src.addr = alloca ptr, align 8
  %dst.addr = alloca ptr, align 8
  %len.addr = alloca i64, align 8
  %bytes_per_word = alloca i32, align 4
  %align_mask = alloca i32, align 4
  %src_unalign = alloca i32, align 4
  %dst_unalign = alloca i32, align 4
  %unalign = alloca i32, align 4
  %mask = alloca i64, align 8
  %srcw = alloca ptr, align 8
  %dstw = alloca ptr, align 8
  %i = alloca i64, align 8
  %n = alloca i64, align 8
  %remainder = alloca i32, align 4
  %offset = alloca i64, align 8
  store ptr %src, ptr %src.addr, align 8
  store ptr %dst, ptr %dst.addr, align 8
  store i64 %len, ptr %len.addr, align 8
  %0 = load i64, ptr %len.addr, align 8
  %cmp = icmp ult i64 %0, 16
  br i1 %cmp, label %if.then, label %if.end

if.then:                                          ; preds = %entry
  %1 = load ptr, ptr %src.addr, align 8
  %2 = load ptr, ptr %dst.addr, align 8
  %3 = load i64, ptr %len.addr, align 8
  call void @_ZN4nodeL16force_ascii_slowEPKcPcm(ptr noundef %1, ptr noundef %2, i64 noundef %3)
  br label %if.end26

if.end:                                           ; preds = %entry
  store i32 8, ptr %bytes_per_word, align 4
  store i32 7, ptr %align_mask, align 4
  %4 = load ptr, ptr %src.addr, align 8
  %5 = ptrtoint ptr %4 to i64
  %and = and i64 %5, 7
  %conv = trunc i64 %and to i32
  store i32 %conv, ptr %src_unalign, align 4
  %6 = load ptr, ptr %dst.addr, align 8
  %7 = ptrtoint ptr %6 to i64
  %and1 = and i64 %7, 7
  %conv2 = trunc i64 %and1 to i32
  store i32 %conv2, ptr %dst_unalign, align 4
  %8 = load i32, ptr %src_unalign, align 4
  %cmp3 = icmp ugt i32 %8, 0
  br i1 %cmp3, label %if.then4, label %if.end13

if.then4:                                         ; preds = %if.end
  %9 = load i32, ptr %src_unalign, align 4
  %10 = load i32, ptr %dst_unalign, align 4
  %cmp5 = icmp eq i32 %9, %10
  br i1 %cmp5, label %if.then6, label %if.else

if.then6:                                         ; preds = %if.then4
  %11 = load i32, ptr %src_unalign, align 4
  %sub = sub i32 8, %11
  store i32 %sub, ptr %unalign, align 4
  %12 = load ptr, ptr %src.addr, align 8
  %13 = load ptr, ptr %dst.addr, align 8
  %14 = load i32, ptr %unalign, align 4
  %conv7 = zext i32 %14 to i64
  call void @_ZN4nodeL16force_ascii_slowEPKcPcm(ptr noundef %12, ptr noundef %13, i64 noundef %conv7)
  %15 = load i32, ptr %unalign, align 4
  %16 = load ptr, ptr %src.addr, align 8
  %idx.ext = zext i32 %15 to i64
  %add.ptr = getelementptr inbounds i8, ptr %16, i64 %idx.ext
  store ptr %add.ptr, ptr %src.addr, align 8
  %17 = load i32, ptr %unalign, align 4
  %18 = load ptr, ptr %dst.addr, align 8
  %idx.ext8 = zext i32 %17 to i64
  %add.ptr9 = getelementptr inbounds i8, ptr %18, i64 %idx.ext8
  store ptr %add.ptr9, ptr %dst.addr, align 8
  %19 = load i32, ptr %src_unalign, align 4
  %conv10 = zext i32 %19 to i64
  %20 = load i64, ptr %len.addr, align 8
  %sub11 = sub i64 %20, %conv10
  store i64 %sub11, ptr %len.addr, align 8
  br label %if.end12

if.else:                                          ; preds = %if.then4
  %21 = load ptr, ptr %src.addr, align 8
  %22 = load ptr, ptr %dst.addr, align 8
  %23 = load i64, ptr %len.addr, align 8
  call void @_ZN4nodeL16force_ascii_slowEPKcPcm(ptr noundef %21, ptr noundef %22, i64 noundef %23)
  br label %if.end26

if.end12:                                         ; preds = %if.then6
  br label %if.end13

if.end13:                                         ; preds = %if.end12, %if.end
  store i64 9187201950435737471, ptr %mask, align 8
  %24 = load ptr, ptr %src.addr, align 8
  store ptr %24, ptr %srcw, align 8
  %25 = load ptr, ptr %dst.addr, align 8
  store ptr %25, ptr %dstw, align 8
  store i64 0, ptr %i, align 8
  %26 = load i64, ptr %len.addr, align 8
  %div = udiv i64 %26, 8
  store i64 %div, ptr %n, align 8
  br label %for.cond

for.cond:                                         ; preds = %for.inc, %if.end13
  %27 = load i64, ptr %i, align 8
  %28 = load i64, ptr %n, align 8
  %cmp14 = icmp ult i64 %27, %28
  br i1 %cmp14, label %for.body, label %for.end

for.body:                                         ; preds = %for.cond
  %29 = load ptr, ptr %srcw, align 8
  %30 = load i64, ptr %i, align 8
  %arrayidx = getelementptr inbounds i64, ptr %29, i64 %30
  %31 = load i64, ptr %arrayidx, align 8
  %and15 = and i64 %31, 9187201950435737471
  %32 = load ptr, ptr %dstw, align 8
  %33 = load i64, ptr %i, align 8
  %arrayidx16 = getelementptr inbounds i64, ptr %32, i64 %33
  store i64 %and15, ptr %arrayidx16, align 8
  br label %for.inc

for.inc:                                          ; preds = %for.body
  %34 = load i64, ptr %i, align 8
  %inc = add i64 %34, 1
  store i64 %inc, ptr %i, align 8
  br label %for.cond, !llvm.loop !11

for.end:                                          ; preds = %for.cond
  %35 = load i64, ptr %len.addr, align 8
  %and17 = and i64 %35, 7
  %conv18 = trunc i64 %and17 to i32
  store i32 %conv18, ptr %remainder, align 4
  %36 = load i32, ptr %remainder, align 4
  %cmp19 = icmp ugt i32 %36, 0
  br i1 %cmp19, label %if.then20, label %if.end26

if.then20:                                        ; preds = %for.end
  %37 = load i64, ptr %len.addr, align 8
  %38 = load i32, ptr %remainder, align 4
  %conv21 = zext i32 %38 to i64
  %sub22 = sub i64 %37, %conv21
  store i64 %sub22, ptr %offset, align 8
  %39 = load ptr, ptr %src.addr, align 8
  %40 = load i64, ptr %offset, align 8
  %add.ptr23 = getelementptr inbounds i8, ptr %39, i64 %40
  %41 = load ptr, ptr %dst.addr, align 8
  %42 = load i64, ptr %offset, align 8
  %add.ptr24 = getelementptr inbounds i8, ptr %41, i64 %42
  %43 = load i32, ptr %remainder, align 4
  %conv25 = zext i32 %43 to i64
  call void @_ZN4nodeL16force_ascii_slowEPKcPcm(ptr noundef %add.ptr23, ptr noundef %add.ptr24, i64 noundef %conv25)
  br label %if.end26

if.end26:                                         ; preds = %if.then20, %for.end, %if.else, %if.then
  ret void
}