; Function Attrs: mustprogress nofree norecurse nosync nounwind memory(readwrite, inaccessiblemem: none) uwtable
define internal fastcc void @_ZN4nodeL11force_asciiEPKcPcm(ptr noundef %src, ptr noundef %dst, i64 noundef %len) unnamed_addr #6 {
entry:
  %cmp = icmp ult i64 %len, 16
  br i1 %cmp, label %if.then, label %if.end

if.then:                                          ; preds = %entry
  %cmp4.not.i = icmp eq i64 %len, 0
  br i1 %cmp4.not.i, label %if.end26, label %for.body.i

for.body.i:                                       ; preds = %if.then, %for.body.i
  %i.05.i = phi i64 [ %inc.i, %for.body.i ], [ 0, %if.then ]
  %arrayidx.i = getelementptr inbounds i8, ptr %src, i64 %i.05.i
  %0 = load i8, ptr %arrayidx.i, align 1
  %1 = and i8 %0, 127
  %arrayidx2.i = getelementptr inbounds i8, ptr %dst, i64 %i.05.i
  store i8 %1, ptr %arrayidx2.i, align 1
  %inc.i = add nuw nsw i64 %i.05.i, 1
  %exitcond.not.i = icmp eq i64 %inc.i, %len
  br i1 %exitcond.not.i, label %if.end26, label %for.body.i, !llvm.loop !11

if.end:                                           ; preds = %entry
  %2 = ptrtoint ptr %src to i64
  %3 = trunc i64 %2 to i32
  %conv = and i32 %3, 7
  %cmp3.not = icmp eq i32 %conv, 0
  br i1 %cmp3.not, label %for.body.preheader, label %if.then4

if.then4:                                         ; preds = %if.end
  %4 = ptrtoint ptr %dst to i64
  %5 = trunc i64 %4 to i32
  %conv2 = and i32 %5, 7
  %cmp5 = icmp eq i32 %conv, %conv2
  br i1 %cmp5, label %if.then6, label %for.body.i40

if.then6:                                         ; preds = %if.then4
  %sub = sub nuw nsw i32 8, %conv
  %conv7 = zext nneg i32 %sub to i64
  br label %for.body.i32

for.body.i32:                                     ; preds = %for.body.i32, %if.then6
  %i.05.i33 = phi i64 [ %inc.i36, %for.body.i32 ], [ 0, %if.then6 ]
  %arrayidx.i34 = getelementptr inbounds i8, ptr %src, i64 %i.05.i33
  %6 = load i8, ptr %arrayidx.i34, align 1
  %7 = and i8 %6, 127
  %arrayidx2.i35 = getelementptr inbounds i8, ptr %dst, i64 %i.05.i33
  store i8 %7, ptr %arrayidx2.i35, align 1
  %inc.i36 = add nuw nsw i64 %i.05.i33, 1
  %exitcond.not.i37 = icmp eq i64 %inc.i36, %conv7
  br i1 %exitcond.not.i37, label %if.end13, label %for.body.i32, !llvm.loop !11

for.body.i40:                                     ; preds = %if.then4, %for.body.i40
  %i.05.i41 = phi i64 [ %inc.i44, %for.body.i40 ], [ 0, %if.then4 ]
  %arrayidx.i42 = getelementptr inbounds i8, ptr %src, i64 %i.05.i41
  %8 = load i8, ptr %arrayidx.i42, align 1
  %9 = and i8 %8, 127
  %arrayidx2.i43 = getelementptr inbounds i8, ptr %dst, i64 %i.05.i41
  store i8 %9, ptr %arrayidx2.i43, align 1
  %inc.i44 = add nuw nsw i64 %i.05.i41, 1
  %exitcond.not.i45 = icmp eq i64 %inc.i44, %len
  br i1 %exitcond.not.i45, label %if.end26, label %for.body.i40, !llvm.loop !11

if.end13:                                         ; preds = %for.body.i32
  %add.ptr = getelementptr inbounds i8, ptr %src, i64 %conv7
  %add.ptr9 = getelementptr inbounds i8, ptr %dst, i64 %conv7
  %conv10 = and i64 %2, 7
  %sub11 = sub nuw nsw i64 %len, %conv10
  %cmp1457.not = icmp ult i64 %sub11, 8
  br i1 %cmp1457.not, label %for.end, label %for.body.preheader

for.body.preheader:                               ; preds = %if.end, %if.end13
  %src.addr.070 = phi ptr [ %add.ptr, %if.end13 ], [ %src, %if.end ]
  %dst.addr.068 = phi ptr [ %add.ptr9, %if.end13 ], [ %dst, %if.end ]
  %len.addr.066 = phi i64 [ %sub11, %if.end13 ], [ %len, %if.end ]
  %div3072 = lshr i64 %len.addr.066, 3
  br label %for.body

for.body:                                         ; preds = %for.body.preheader, %for.body
  %i.058 = phi i64 [ %inc, %for.body ], [ 0, %for.body.preheader ]
  %arrayidx = getelementptr inbounds i64, ptr %src.addr.070, i64 %i.058
  %10 = load i64, ptr %arrayidx, align 8
  %and15 = and i64 %10, 9187201950435737471
  %arrayidx16 = getelementptr inbounds i64, ptr %dst.addr.068, i64 %i.058
  store i64 %and15, ptr %arrayidx16, align 8
  %inc = add nuw nsw i64 %i.058, 1
  %exitcond.not = icmp eq i64 %inc, %div3072
  br i1 %exitcond.not, label %for.end, label %for.body, !llvm.loop !12

for.end:                                          ; preds = %for.body, %if.end13
  %src.addr.071 = phi ptr [ %add.ptr, %if.end13 ], [ %src.addr.070, %for.body ]
  %dst.addr.069 = phi ptr [ %add.ptr9, %if.end13 ], [ %dst.addr.068, %for.body ]
  %len.addr.067 = phi i64 [ %sub11, %if.end13 ], [ %len.addr.066, %for.body ]
  %conv1831 = and i64 %len.addr.067, 7
  %cmp19.not = icmp eq i64 %conv1831, 0
  br i1 %cmp19.not, label %if.end26, label %if.then20

if.then20:                                        ; preds = %for.end
  %sub22 = and i64 %len.addr.067, -8
  %add.ptr23 = getelementptr inbounds i8, ptr %src.addr.071, i64 %sub22
  %add.ptr24 = getelementptr inbounds i8, ptr %dst.addr.069, i64 %sub22
  br label %for.body.i48

for.body.i48:                                     ; preds = %if.then20, %for.body.i48
  %i.05.i49 = phi i64 [ %inc.i52, %for.body.i48 ], [ 0, %if.then20 ]
  %arrayidx.i50 = getelementptr inbounds i8, ptr %add.ptr23, i64 %i.05.i49
  %11 = load i8, ptr %arrayidx.i50, align 1
  %12 = and i8 %11, 127
  %arrayidx2.i51 = getelementptr inbounds i8, ptr %add.ptr24, i64 %i.05.i49
  store i8 %12, ptr %arrayidx2.i51, align 1
  %inc.i52 = add nuw nsw i64 %i.05.i49, 1
  %exitcond.not.i53 = icmp eq i64 %inc.i52, %conv1831
  br i1 %exitcond.not.i53, label %if.end26, label %for.body.i48, !llvm.loop !11

if.end26:                                         ; preds = %for.body.i40, %for.body.i48, %for.body.i, %if.then, %for.end
  ret void
}